; Function Attrs: mustprogress nofree norecurse nosync nounwind memory(read, argmem: readwrite, inaccessiblemem: none) uwtable
define void @_ZN32pxrInternal_v0_24__pxrReserved__10GfMatrix2dC2ERKSt6vectorIS1_IfSaIfEESaIS3_EE(ptr noundef nonnull writeonly align 8 captures(none) dereferenceable(32) %0, ptr noundef nonnull readonly align 8 captures(none) dereferenceable(24) %1) unnamed_addr #3 align 2 {
  %3 = alloca [2 x [2 x double]], align 16
  call void @llvm.memcpy.p0.p0.i64(ptr noundef nonnull align 16 dereferenceable(32) %3, ptr noundef nonnull align 16 dereferenceable(32) @__const.GfMatrix2d.m.6, i64 32, i1 false)
  %4 = getelementptr inbounds nuw i8, ptr %1, i64 8
  %5 = load ptr, ptr %4, align 8
  %6 = load ptr, ptr %1, align 8
  %7 = ptrtoint ptr %5 to i64
  %8 = ptrtoint ptr %6 to i64
  %9 = sub i64 %7, %8
  %10 = sdiv exact i64 %9, 24
  br label %11

11:                                               ; preds = %2, %.critedge2
  %12 = phi i1 [ true, %2 ], [ false, %.critedge2 ]
  %.01618 = phi i64 [ 0, %2 ], [ 1, %.critedge2 ]
  %exitcond19.not = icmp eq i64 %.01618, %10
  br i1 %exitcond19.not, label %.critedge, label %.preheader

.preheader:                                       ; preds = %11
  %13 = getelementptr inbounds nuw %"class.std::vector.11", ptr %6, i64 %.01618
  %14 = getelementptr inbounds nuw i8, ptr %13, i64 8
  %15 = load ptr, ptr %14, align 8
  %16 = load ptr, ptr %13, align 8
  %17 = ptrtoint ptr %15 to i64
  %18 = ptrtoint ptr %16 to i64
  %19 = sub i64 %17, %18
  %20 = ashr exact i64 %19, 2
  br label %21

21:                                               ; preds = %.preheader, %23
  %22 = phi i1 [ true, %.preheader ], [ false, %23 ]
  %.017 = phi i64 [ 0, %.preheader ], [ 1, %23 ]
  %exitcond.not = icmp eq i64 %.017, %20
  br i1 %exitcond.not, label %.critedge2, label %23

23:                                               ; preds = %21
  %24 = getelementptr inbounds nuw float, ptr %16, i64 %.017
  %25 = load float, ptr %24, align 4
  %26 = fpext float %25 to double
  %27 = getelementptr inbounds nuw [2 x [2 x double]], ptr %3, i64 0, i64 %.01618, i64 %.017
  store double %26, ptr %27, align 8
  br i1 %22, label %21, label %.critedge2, !llvm.loop !7

.critedge2:                                       ; preds = %21, %23
  br i1 %12, label %11, label %.critedge, !llvm.loop !8

.critedge:                                        ; preds = %.critedge2, %11
  %28 = load double, ptr %3, align 16
  store double %28, ptr %0, align 8
  %29 = getelementptr inbounds nuw i8, ptr %3, i64 8
  %30 = load double, ptr %29, align 8
  %31 = getelementptr inbounds nuw i8, ptr %0, i64 8
  store double %30, ptr %31, align 8
  %32 = getelementptr inbounds nuw i8, ptr %3, i64 16
  %33 = load double, ptr %32, align 16
  %34 = getelementptr inbounds nuw i8, ptr %0, i64 16
  store double %33, ptr %34, align 8
  %35 = getelementptr inbounds nuw i8, ptr %3, i64 24
  %36 = load double, ptr %35, align 8
  %37 = getelementptr inbounds nuw i8, ptr %0, i64 24
  store double %36, ptr %37, align 8
  ret void
}